; Function Attrs: mustprogress nofree nounwind willreturn memory(read, inaccessiblemem: none) uwtable
define noundef zeroext i1 @_ZNK6icu_756FormateqERKS0_(ptr nocapture noundef nonnull readonly align 8 dereferenceable(322) %this, ptr nocapture noundef nonnull readonly align 8 dereferenceable(322) %that) unnamed_addr #10 align 2 {
entry:
  %vtable = load ptr, ptr %this, align 8
  %0 = getelementptr inbounds i8, ptr %vtable, i64 -8
  %1 = load ptr, ptr %0, align 8
  %vtable2 = load ptr, ptr %that, align 8
  %2 = getelementptr inbounds i8, ptr %vtable2, i64 -8
  %3 = load ptr, ptr %2, align 8
  %__name.i = getelementptr inbounds i8, ptr %1, i64 8
  %4 = load ptr, ptr %__name.i, align 8
  %__name2.i = getelementptr inbounds i8, ptr %3, i64 8
  %5 = load ptr, ptr %__name2.i, align 8
  %cmp.i = icmp eq ptr %4, %5
  br i1 %cmp.i, label %_ZNKSt9type_infoeqERKS_.exit, label %if.end.i

if.end.i:                                         ; preds = %entry
  %6 = load i8, ptr %4, align 1
  %cmp4.not.i = icmp eq i8 %6, 42
  br i1 %cmp4.not.i, label %_ZNKSt9type_infoeqERKS_.exit, label %land.rhs.i

land.rhs.i:                                       ; preds = %if.end.i
  %7 = load i8, ptr %5, align 1
  %cmp.i.i = icmp eq i8 %7, 42
  %cond.idx.i.i = zext i1 %cmp.i.i to i64
  %cond.i.i = getelementptr inbounds i8, ptr %5, i64 %cond.idx.i.i
  %call6.i = tail call i32 @strcmp(ptr noundef nonnull dereferenceable(1) %4, ptr noundef nonnull dereferenceable(1) %cond.i.i) #13
  %cmp7.i = icmp eq i32 %call6.i, 0
  br label %_ZNKSt9type_infoeqERKS_.exit

_ZNKSt9type_infoeqERKS_.exit:                     ; preds = %entry, %if.end.i, %land.rhs.i
  %retval.0.i = phi i1 [ true, %entry ], [ false, %if.end.i ], [ %cmp7.i, %land.rhs.i ]
  ret i1 %retval.0.i
}